; Function Attrs: nounwind uwtable
define internal void @lv_buttonmatrix_destructor(ptr nocapture readnone %0, ptr nocapture noundef %1) #0 {
  %3 = getelementptr inbounds nuw i8, ptr %1, i64 72
  %4 = load ptr, ptr %3, align 8, !tbaa !14
  tail call void @lv_free(ptr noundef %4) #7
  %5 = getelementptr inbounds nuw i8, ptr %1, i64 80
  %6 = load ptr, ptr %5, align 8, !tbaa !15
  tail call void @lv_free(ptr noundef %6) #7
  tail call void @llvm.memset.p0.i64(ptr noundef nonnull align 8 dereferenceable(16) %3, i8 0, i64 16, i1 false)
  ret void
}